; ModuleID = '20/90.c'
source_filename = "20/90.c"
target datalayout = "e-m:e-p270:32:32-p271:32:32-p272:64:64-i64:64-f80:128-n8:16:32:64-S128"
target triple = "x86_64-pc-linux-gnu"

@.str = private unnamed_addr constant [3 x i8] c"%s\00", align 1
@.str.1 = private unnamed_addr constant [4 x i8] c"%s\0A\00", align 1
@.str.2 = private unnamed_addr constant [3 x i8] c"%c\00", align 1
@.str.3 = private unnamed_addr constant [2 x i8] c"\0A\00", align 1

; Function Attrs: noinline nounwind uwtable
define dso_local void @main() #0 {
  %1 = alloca i32, align 4
  %2 = alloca i32, align 4
  %3 = alloca [11 x i8], align 1
  %4 = alloca [4 x i8], align 1
  %5 = alloca i8, align 1
  store i32 0, i32* %2, align 4
  br label %6

6:                                                ; preds = %39, %0
  %7 = load i32, i32* %2, align 4
  %8 = icmp ne i32 %7, 0
  br i1 %8, label %9, label %29

9:                                                ; preds = %6
  store i32 1, i32* %1, align 4
  br label %10

10:                                               ; preds = %25, %9
  %11 = call i32 @getchar()
  %12 = trunc i32 %11 to i8
  store i8 %12, i8* %5, align 1
  %13 = sext i8 %12 to i32
  %14 = icmp ne i32 %13, 32
  br i1 %14, label %15, label %20

15:                                               ; preds = %10
  %16 = load i8, i8* %5, align 1
  %17 = load i32, i32* %1, align 4
  %18 = sext i32 %17 to i64
  %19 = getelementptr inbounds [11 x i8], [11 x i8]* %3, i64 0, i64 %18
  store i8 %16, i8* %19, align 1
  br label %24

20:                                               ; preds = %10
  %21 = load i32, i32* %1, align 4
  %22 = sext i32 %21 to i64
  %23 = getelementptr inbounds [11 x i8], [11 x i8]* %3, i64 0, i64 %22
  store i8 0, i8* %23, align 1
  br label %28

24:                                               ; preds = %15
  br label %25

25:                                               ; preds = %24
  %26 = load i32, i32* %1, align 4
  %27 = add nsw i32 %26, 1
  store i32 %27, i32* %1, align 4
  br label %10

28:                                               ; preds = %20
  br label %32

29:                                               ; preds = %6
  %30 = getelementptr inbounds [11 x i8], [11 x i8]* %3, i64 0, i64 0
  %31 = call i32 (i8*, ...) @__isoc99_scanf(i8* getelementptr inbounds ([3 x i8], [3 x i8]* @.str, i64 0, i64 0), i8* %30)
  br label %32

32:                                               ; preds = %29, %28
  %33 = getelementptr inbounds [4 x i8], [4 x i8]* %4, i64 0, i64 0
  %34 = call i32 (i8*, ...) @__isoc99_scanf(i8* getelementptr inbounds ([4 x i8], [4 x i8]* @.str.1, i64 0, i64 0), i8* %33)
  %35 = getelementptr inbounds [11 x i8], [11 x i8]* %3, i64 0, i64 0
  %36 = getelementptr inbounds [4 x i8], [4 x i8]* %4, i64 0, i64 0
  call void @max(i8* %35, i8* %36)
  %37 = load i32, i32* %2, align 4
  %38 = add nsw i32 %37, 1
  store i32 %38, i32* %2, align 4
  br label %39

39:                                               ; preds = %32
  %40 = call i32 @getchar()
  %41 = trunc i32 %40 to i8
  %42 = getelementptr inbounds [11 x i8], [11 x i8]* %3, i64 0, i64 0
  store i8 %41, i8* %42, align 1
  %43 = sext i8 %41 to i32
  %44 = icmp ne i32 %43, -1
  br i1 %44, label %6, label %45

45:                                               ; preds = %39
  ret void
}

declare dso_local i32 @getchar() #1

declare dso_local i32 @__isoc99_scanf(i8*, ...) #1

; Function Attrs: noinline nounwind uwtable
define dso_local void @max(i8* %0, i8* %1) #0 {
  %3 = alloca i8*, align 8
  %4 = alloca i8*, align 8
  %5 = alloca i32, align 4
  %6 = alloca i32, align 4
  %7 = alloca i32, align 4
  %8 = alloca i8, align 1
  store i8* %0, i8** %3, align 8
  store i8* %1, i8** %4, align 8
  store i32 0, i32* %6, align 4
  %9 = load i8*, i8** %3, align 8
  %10 = getelementptr inbounds i8, i8* %9, i64 0
  %11 = load i8, i8* %10, align 1
  store i8 %11, i8* %8, align 1
  %12 = load i8*, i8** %3, align 8
  %13 = call i64 @strlen(i8* %12) #3
  %14 = trunc i64 %13 to i32
  store i32 %14, i32* %7, align 4
  store i32 1, i32* %5, align 4
  br label %15

15:                                               ; preds = %38, %2
  %16 = load i32, i32* %5, align 4
  %17 = load i32, i32* %7, align 4
  %18 = sub nsw i32 %17, 1
  %19 = icmp sle i32 %16, %18
  br i1 %19, label %20, label %41

20:                                               ; preds = %15
  %21 = load i8*, i8** %3, align 8
  %22 = load i32, i32* %5, align 4
  %23 = sext i32 %22 to i64
  %24 = getelementptr inbounds i8, i8* %21, i64 %23
  %25 = load i8, i8* %24, align 1
  %26 = sext i8 %25 to i32
  %27 = load i8, i8* %8, align 1
  %28 = sext i8 %27 to i32
  %29 = icmp sgt i32 %26, %28
  br i1 %29, label %30, label %37

30:                                               ; preds = %20
  %31 = load i8*, i8** %3, align 8
  %32 = load i32, i32* %5, align 4
  %33 = sext i32 %32 to i64
  %34 = getelementptr inbounds i8, i8* %31, i64 %33
  %35 = load i8, i8* %34, align 1
  store i8 %35, i8* %8, align 1
  %36 = load i32, i32* %5, align 4
  store i32 %36, i32* %6, align 4
  br label %37

37:                                               ; preds = %30, %20
  br label %38

38:                                               ; preds = %37
  %39 = load i32, i32* %5, align 4
  %40 = add nsw i32 %39, 1
  store i32 %40, i32* %5, align 4
  br label %15

41:                                               ; preds = %15
  store i32 0, i32* %5, align 4
  br label %42

42:                                               ; preds = %54, %41
  %43 = load i32, i32* %5, align 4
  %44 = load i32, i32* %6, align 4
  %45 = icmp sle i32 %43, %44
  br i1 %45, label %46, label %57

46:                                               ; preds = %42
  %47 = load i8*, i8** %3, align 8
  %48 = load i32, i32* %5, align 4
  %49 = sext i32 %48 to i64
  %50 = getelementptr inbounds i8, i8* %47, i64 %49
  %51 = load i8, i8* %50, align 1
  %52 = sext i8 %51 to i32
  %53 = call i32 (i8*, ...) @printf(i8* getelementptr inbounds ([3 x i8], [3 x i8]* @.str.2, i64 0, i64 0), i32 %52)
  br label %54

54:                                               ; preds = %46
  %55 = load i32, i32* %5, align 4
  %56 = add nsw i32 %55, 1
  store i32 %56, i32* %5, align 4
  br label %42

57:                                               ; preds = %42
  %58 = load i32, i32* %6, align 4
  %59 = add nsw i32 %58, 1
  store i32 %59, i32* %5, align 4
  br label %60

60:                                               ; preds = %76, %57
  %61 = load i32, i32* %5, align 4
  %62 = load i32, i32* %6, align 4
  %63 = add nsw i32 %62, 3
  %64 = icmp sle i32 %61, %63
  br i1 %64, label %65, label %79

65:                                               ; preds = %60
  %66 = load i8*, i8** %4, align 8
  %67 = load i32, i32* %5, align 4
  %68 = load i32, i32* %6, align 4
  %69 = sub nsw i32 %67, %68
  %70 = sub nsw i32 %69, 1
  %71 = sext i32 %70 to i64
  %72 = getelementptr inbounds i8, i8* %66, i64 %71
  %73 = load i8, i8* %72, align 1
  %74 = sext i8 %73 to i32
  %75 = call i32 (i8*, ...) @printf(i8* getelementptr inbounds ([3 x i8], [3 x i8]* @.str.2, i64 0, i64 0), i32 %74)
  br label %76

76:                                               ; preds = %65
  %77 = load i32, i32* %5, align 4
  %78 = add nsw i32 %77, 1
  store i32 %78, i32* %5, align 4
  br label %60

79:                                               ; preds = %60
  %80 = load i32, i32* %6, align 4
  %81 = add nsw i32 %80, 4
  store i32 %81, i32* %5, align 4
  br label %82

82:                                               ; preds = %96, %79
  %83 = load i32, i32* %5, align 4
  %84 = load i32, i32* %7, align 4
  %85 = add nsw i32 %84, 3
  %86 = icmp slt i32 %83, %85
  br i1 %86, label %87, label %99

87:                                               ; preds = %82
  %88 = load i8*, i8** %3, align 8
  %89 = load i32, i32* %5, align 4
  %90 = sub nsw i32 %89, 3
  %91 = sext i32 %90 to i64
  %92 = getelementptr inbounds i8, i8* %88, i64 %91
  %93 = load i8, i8* %92, align 1
  %94 = sext i8 %93 to i32
  %95 = call i32 (i8*, ...) @printf(i8* getelementptr inbounds ([3 x i8], [3 x i8]* @.str.2, i64 0, i64 0), i32 %94)
  br label %96

96:                                               ; preds = %87
  %97 = load i32, i32* %5, align 4
  %98 = add nsw i32 %97, 1
  store i32 %98, i32* %5, align 4
  br label %82

99:                                               ; preds = %82
  %100 = call i32 (i8*, ...) @printf(i8* getelementptr inbounds ([2 x i8], [2 x i8]* @.str.3, i64 0, i64 0))
  ret void
}

; Function Attrs: nounwind readonly
declare dso_local i64 @strlen(i8*) #2

declare dso_local i32 @printf(i8*, ...) #1


!llvm.module.flags = !{!0}
!llvm.ident = !{!1}

!0 = !{i32 1, !"wchar_size", i32 4}
!1 = !{!"clang version 10.0.0-4ubuntu1 "}
